; Function Attrs: nounwind uwtable
define dso_local noundef ptr @slab_automove_extstore_init(ptr noundef %0) local_unnamed_addr #0 {
  %2 = getelementptr inbounds nuw i8, ptr %0, i64 168
  %3 = load i32, ptr %2, align 8, !tbaa !4
  %4 = getelementptr inbounds nuw i8, ptr %0, i64 152
  %5 = load double, ptr %4, align 8, !tbaa !15
  %6 = tail call noalias dereferenceable_or_null(6200) ptr @calloc(i64 noundef 1, i64 noundef 6200) #9
  %7 = icmp eq ptr %6, null
  br i1 %7, label %26, label %8

8:                                                ; preds = %1
  %9 = shl i32 %3, 6
  %10 = zext i32 %9 to i64
  %11 = tail call noalias ptr @calloc(i64 noundef %10, i64 noundef 32) #9
  store ptr %11, ptr %6, align 8, !tbaa !16
  %12 = getelementptr inbounds nuw i8, ptr %6, i64 16
  store i32 %3, ptr %12, align 8, !tbaa !20
  %13 = getelementptr inbounds nuw i8, ptr %6, i64 32
  store double %5, ptr %13, align 8, !tbaa !21
  %14 = getelementptr inbounds nuw i8, ptr %0, i64 160
  %15 = load double, ptr %14, align 8, !tbaa !22
  %16 = getelementptr inbounds nuw i8, ptr %6, i64 40
  store double %15, ptr %16, align 8, !tbaa !23
  %17 = getelementptr inbounds nuw i8, ptr %0, i64 280
  %18 = load i32, ptr %17, align 8, !tbaa !24
  %19 = getelementptr inbounds nuw i8, ptr %6, i64 24
  store i32 %18, ptr %19, align 8, !tbaa !25
  %20 = getelementptr inbounds nuw i8, ptr %6, i64 8
  store ptr %0, ptr %20, align 8, !tbaa !26
  %21 = icmp eq ptr %11, null
  br i1 %21, label %22, label %23

22:                                               ; preds = %8
  tail call void @free(ptr noundef nonnull %6) #10
  br label %26

23:                                               ; preds = %8
  %24 = getelementptr inbounds nuw i8, ptr %6, i64 56
  tail call void @fill_item_stats_automove(ptr noundef nonnull %24) #10
  %25 = getelementptr inbounds nuw i8, ptr %6, i64 3128
  tail call void @fill_slab_stats_automove(ptr noundef nonnull %25) #10
  br label %26

26:                                               ; preds = %1, %23, %22
  %.0 = phi ptr [ null, %22 ], [ %6, %23 ], [ null, %1 ]
  ret ptr %.0
}